target datalayout = "e-m:e-p270:32:32-p271:32:32-p272:64:64-i64:64-i128:128-f80:128-n8:16:32:64-S128"
target triple = "x86_64-pc-linux-gnu"

%struct._php_ps_globals = type { ptr, ptr, ptr, ptr, ptr, i64, ptr, ptr, ptr, i8, i8, ptr, ptr, ptr, i32, ptr, i32, i32, %struct._php_random_status_state_pcgoneseq128xslrr64, %struct._php_random_algo_with_state, i64, i64, i64, i64, %struct.anon, ptr, i8, i8, i8, i8, i8, i8, i8, i8, ptr, %struct._zval_struct, i64, i64, ptr, ptr, ptr, i64, double, i8, i8, i8, i8, i8, i8, ptr }
%struct._php_random_status_state_pcgoneseq128xslrr64 = type { i128 }
%struct._php_random_algo_with_state = type { ptr, ptr }
%struct.anon = type { %struct._zval_struct, %struct._zval_struct, %struct._zval_struct, %struct._zval_struct, %struct._zval_struct, %struct._zval_struct, %struct._zval_struct, %struct._zval_struct, %struct._zval_struct }
%struct._zval_struct = type { %union._zend_value, %union.anon, %union.anon.3 }
%union._zend_value = type { i64 }
%union.anon = type { i32 }
%union.anon.3 = type { i32 }
%struct._zend_array = type { %struct._zend_refcounted_h, %union.anon.5, i32, %union.anon.7, i32, i32, i32, i32, i64, ptr }
%struct._zend_refcounted_h = type { i32, %union.anon.4 }
%union.anon.4 = type { i32 }
%union.anon.5 = type { i32 }
%union.anon.7 = type { ptr }
%struct._zend_reference = type { %struct._zend_refcounted_h, %struct._zval_struct, %union.zend_property_info_source_list }
%union.zend_property_info_source_list = type { ptr }

@ps_globals = global %struct._php_ps_globals zeroinitializer, align 16

; Function Attrs: nounwind uwtable
define ptr @php_set_session_var(ptr noundef %0, ptr noundef %1, ptr noundef %2) #0 {
  %4 = alloca ptr, align 8
  %5 = alloca ptr, align 8
  %6 = alloca ptr, align 8
  %7 = alloca ptr, align 8
  %8 = alloca ptr, align 8
  %9 = alloca ptr, align 8
  %10 = alloca ptr, align 8
  %11 = alloca ptr, align 8
  %12 = alloca ptr, align 8
  %13 = alloca ptr, align 8
  %14 = alloca ptr, align 8
  %15 = alloca ptr, align 8
  %16 = alloca ptr, align 8
  store ptr %0, ptr %9, align 8
  store ptr %1, ptr %10, align 8
  store ptr %2, ptr %11, align 8
  store ptr getelementptr inbounds (%struct._php_ps_globals, ptr @ps_globals, i32 0, i32 35), ptr %6, align 8
  %17 = load ptr, ptr %6, align 8
  %18 = getelementptr inbounds %struct._zval_struct, ptr %17, i32 0, i32 1
  %19 = load i8, ptr %18, align 8
  %20 = zext i8 %19 to i32
  %21 = icmp eq i32 %20, 10
  br i1 %21, label %22, label %79

22:                                               ; preds = %3
  %23 = load ptr, ptr getelementptr inbounds (%struct._php_ps_globals, ptr @ps_globals, i32 0, i32 35), align 8
  %24 = getelementptr inbounds %struct._zend_reference, ptr %23, i32 0, i32 1
  store ptr %24, ptr %7, align 8
  %25 = load ptr, ptr %7, align 8
  %26 = getelementptr inbounds %struct._zval_struct, ptr %25, i32 0, i32 1
  %27 = load i8, ptr %26, align 8
  %28 = zext i8 %27 to i32
  %29 = icmp eq i32 %28, 7
  br i1 %29, label %30, label %79

30:                                               ; preds = %22
  %31 = load ptr, ptr getelementptr inbounds (%struct._php_ps_globals, ptr @ps_globals, i32 0, i32 35), align 8
  %32 = getelementptr inbounds %struct._zend_reference, ptr %31, i32 0, i32 1
  store ptr %32, ptr %12, align 8
  br label %33

33:                                               ; preds = %30
  %34 = load ptr, ptr %12, align 8
  store ptr %34, ptr %13, align 8
  %35 = load ptr, ptr %13, align 8
  %36 = getelementptr inbounds %struct._zval_struct, ptr %35, i32 0, i32 0
  %37 = load ptr, ptr %36, align 8
  store ptr %37, ptr %14, align 8
  %38 = load ptr, ptr %14, align 8
  %39 = getelementptr inbounds %struct._zend_array, ptr %38, i32 0, i32 0
  store ptr %39, ptr %5, align 8
  %40 = load ptr, ptr %5, align 8
  %41 = load i32, ptr %40, align 4
  %42 = icmp ugt i32 %41, 1
  %43 = xor i1 %42, true
  %44 = xor i1 %43, true
  %45 = zext i1 %44 to i32
  %46 = sext i32 %45 to i64
  %47 = icmp ne i64 %46, 0
  br i1 %47, label %48, label %71

48:                                               ; preds = %33
  br label %49

49:                                               ; preds = %48
  %50 = load ptr, ptr %14, align 8
  %51 = call ptr @zend_array_dup(ptr noundef %50)
  store ptr %51, ptr %15, align 8
  %52 = load ptr, ptr %13, align 8
  store ptr %52, ptr %16, align 8
  %53 = load ptr, ptr %15, align 8
  %54 = load ptr, ptr %16, align 8
  %55 = getelementptr inbounds %struct._zval_struct, ptr %54, i32 0, i32 0
  store ptr %53, ptr %55, align 8
  %56 = load ptr, ptr %16, align 8
  %57 = getelementptr inbounds %struct._zval_struct, ptr %56, i32 0, i32 1
  store i32 775, ptr %57, align 8
  br label %58

58:                                               ; preds = %49
  %59 = load ptr, ptr %14, align 8
  %60 = getelementptr inbounds %struct._zend_array, ptr %59, i32 0, i32 0
  store ptr %60, ptr %4, align 8
  %61 = load ptr, ptr %4, align 8
  %62 = getelementptr inbounds %struct._zend_refcounted_h, ptr %61, i32 0, i32 1
  %63 = load i32, ptr %62, align 4
  %64 = and i32 %63, 64
  %65 = icmp ne i32 %64, 0
  br i1 %65, label %70, label %66

66:                                               ; preds = %58
  %67 = load ptr, ptr %4, align 8
  %68 = load i32, ptr %67, align 4
  %69 = add i32 %68, -1
  store i32 %69, ptr %67, align 4
  br label %70

70:                                               ; preds = %66, %58
  br label %71

71:                                               ; preds = %70, %33
  br label %72

72:                                               ; preds = %71
  %73 = load ptr, ptr %12, align 8
  %74 = getelementptr inbounds %struct._zval_struct, ptr %73, i32 0, i32 0
  %75 = load ptr, ptr %74, align 8
  %76 = load ptr, ptr %9, align 8
  %77 = load ptr, ptr %10, align 8
  %78 = call ptr @zend_hash_update(ptr noundef %75, ptr noundef %76, ptr noundef %77)
  store ptr %78, ptr %8, align 8
  br label %80

79:                                               ; preds = %22, %3
  store ptr null, ptr %8, align 8
  br label %80

80:                                               ; preds = %79, %72
  %81 = load ptr, ptr %8, align 8
  ret ptr %81
}