; Function Attrs: nounwind uwtable
define ptr @php_set_session_var(ptr noundef %0, ptr noundef %1, ptr nocapture noundef readnone %2) local_unnamed_addr #0 {
  %4 = load i8, ptr getelementptr inbounds (%struct._php_ps_globals, ptr @ps_globals, i64 0, i32 35, i32 1), align 16
  %5 = icmp eq i8 %4, 10
  br i1 %5, label %6, label %27

6:                                                ; preds = %3
  %7 = load ptr, ptr getelementptr inbounds (%struct._php_ps_globals, ptr @ps_globals, i64 0, i32 35), align 8
  %8 = getelementptr inbounds i8, ptr %7, i64 8
  %9 = getelementptr inbounds i8, ptr %7, i64 16
  %10 = load i8, ptr %9, align 8
  %11 = icmp eq i8 %10, 7
  br i1 %11, label %12, label %27

12:                                               ; preds = %6
  %13 = load ptr, ptr %8, align 8
  %14 = load i32, ptr %13, align 4
  %15 = icmp ugt i32 %14, 1
  br i1 %15, label %16, label %24

16:                                               ; preds = %12
  %17 = tail call ptr @zend_array_dup(ptr noundef nonnull %13) #23
  store ptr %17, ptr %8, align 8
  store i32 775, ptr %9, align 8
  %18 = getelementptr inbounds i8, ptr %13, i64 4
  %19 = load i32, ptr %18, align 4
  %20 = and i32 %19, 64
  %.not = icmp eq i32 %20, 0
  br i1 %.not, label %21, label %24

21:                                               ; preds = %16
  %22 = load i32, ptr %13, align 4
  %23 = add i32 %22, -1
  store i32 %23, ptr %13, align 4
  %.pre = load ptr, ptr %8, align 8
  br label %24

24:                                               ; preds = %12, %21, %16
  %25 = phi ptr [ %13, %12 ], [ %.pre, %21 ], [ %17, %16 ]
  %26 = tail call ptr @zend_hash_update(ptr noundef %25, ptr noundef %0, ptr noundef %1) #23
  br label %27

27:                                               ; preds = %3, %6, %24
  %.0 = phi ptr [ %26, %24 ], [ null, %6 ], [ null, %3 ]
  ret ptr %.0
}